; Function Attrs: nounwind uwtable
define internal void @spawn_cbfunc(i32 noundef %0, ptr noundef readonly captures(address_is_null) %1, ptr noundef initializes((500, 504)) %2) #0 {
  fence acquire
  %4 = getelementptr inbounds nuw i8, ptr %2, i64 500
  store i32 %0, ptr %4, align 4, !tbaa !75
  %.not = icmp eq ptr %1, null
  br i1 %.not, label %8, label %5

5:                                                ; preds = %3
  %6 = tail call noalias ptr @strdup(ptr noundef nonnull %1) #14
  %7 = getelementptr inbounds nuw i8, ptr %2, i64 704
  store ptr %6, ptr %7, align 8, !tbaa !56
  br label %8

8:                                                ; preds = %5, %3
  fence release
  %9 = getelementptr inbounds nuw i8, ptr %2, i64 400
  %10 = tail call i32 @pthread_mutex_lock(ptr noundef nonnull %9) #14
  %11 = getelementptr inbounds nuw i8, ptr %2, i64 488
  store volatile i8 0, ptr %11, align 8, !tbaa !73
  fence release
  %12 = getelementptr inbounds nuw i8, ptr %2, i64 440
  %13 = tail call i32 @pthread_cond_broadcast(ptr noundef nonnull %12) #14
  %14 = tail call i32 @pthread_mutex_unlock(ptr noundef nonnull %9) #14
  ret void
}